; Function Attrs: mustprogress uwtable
define void @_ZN10open_spiel9blackjack14BlackjackState22MaybeApplyDealerActionEv(ptr noundef nonnull align 8 dereferenceable(200) %0) local_unnamed_addr #3 align 2 {
  %2 = getelementptr inbounds nuw i8, ptr %0, i64 72
  %3 = load i32, ptr %2, align 8
  %4 = icmp eq i32 %3, 0
  br i1 %4, label %5, label %._crit_edge

._crit_edge:                                      ; preds = %1
  %.phi.trans.insert = getelementptr inbounds nuw i8, ptr %0, i64 64
  %.pre = load i32, ptr %.phi.trans.insert, align 8
  br label %31

5:                                                ; preds = %1
  %6 = getelementptr inbounds nuw i8, ptr %0, i64 8
  %7 = load ptr, ptr %6, align 8
  %8 = load ptr, ptr %7, align 8
  %9 = getelementptr inbounds i8, ptr %8, i64 56
  %10 = load ptr, ptr %9, align 8
  %11 = tail call noundef i32 %10(ptr noundef nonnull align 8 dereferenceable(280) %7)
  %12 = getelementptr inbounds nuw i8, ptr %0, i64 128
  %13 = sext i32 %11 to i64
  %14 = load ptr, ptr %12, align 8
  %15 = getelementptr inbounds i32, ptr %14, i64 %13
  store i32 1, ptr %15, align 4
  %16 = load ptr, ptr %0, align 8
  %17 = getelementptr inbounds i8, ptr %16, i64 88
  %18 = load ptr, ptr %17, align 8
  %19 = tail call noundef zeroext i1 %18(ptr noundef nonnull align 8 dereferenceable(200) %0)
  br i1 %19, label %_ZN10open_spiel9blackjack14BlackjackState13EndPlayerTurnEi.exit, label %20

20:                                               ; preds = %5
  %21 = load ptr, ptr %12, align 8
  %22 = load i32, ptr %21, align 4
  %.not.i.i = icmp eq i32 %22, 0
  br i1 %.not.i.i, label %_ZN10open_spiel9blackjack14BlackjackState13EndPlayerTurnEi.exit, label %23

23:                                               ; preds = %20
  %24 = load ptr, ptr %6, align 8
  %25 = load ptr, ptr %24, align 8
  %26 = getelementptr inbounds i8, ptr %25, i64 56
  %27 = load ptr, ptr %26, align 8
  %28 = tail call noundef i32 %27(ptr noundef nonnull align 8 dereferenceable(280) %24)
  br label %_ZN10open_spiel9blackjack14BlackjackState13EndPlayerTurnEi.exit

_ZN10open_spiel9blackjack14BlackjackState13EndPlayerTurnEi.exit: ; preds = %5, %20, %23
  %.0.i.i = phi i32 [ -4, %5 ], [ %28, %23 ], [ 0, %20 ]
  %29 = getelementptr inbounds nuw i8, ptr %0, i64 68
  store i32 %.0.i.i, ptr %29, align 4
  %30 = getelementptr inbounds nuw i8, ptr %0, i64 64
  store i32 %.0.i.i, ptr %30, align 8
  br label %31

31:                                               ; preds = %._crit_edge, %_ZN10open_spiel9blackjack14BlackjackState13EndPlayerTurnEi.exit
  %32 = phi i32 [ %.pre, %._crit_edge ], [ %.0.i.i, %_ZN10open_spiel9blackjack14BlackjackState13EndPlayerTurnEi.exit ]
  %33 = getelementptr inbounds nuw i8, ptr %0, i64 64
  %34 = getelementptr inbounds nuw i8, ptr %0, i64 8
  %35 = load ptr, ptr %34, align 8
  %36 = load ptr, ptr %35, align 8
  %37 = getelementptr inbounds i8, ptr %36, i64 56
  %38 = load ptr, ptr %37, align 8
  %39 = tail call noundef i32 %38(ptr noundef nonnull align 8 dereferenceable(280) %35)
  %40 = icmp eq i32 %32, %39
  br i1 %40, label %41, label %84

41:                                               ; preds = %31
  %42 = load ptr, ptr %34, align 8
  %43 = load ptr, ptr %42, align 8
  %44 = getelementptr inbounds i8, ptr %43, i64 56
  %45 = load ptr, ptr %44, align 8
  %46 = tail call noundef i32 %45(ptr noundef nonnull align 8 dereferenceable(280) %42)
  %47 = getelementptr inbounds nuw i8, ptr %0, i64 80
  %48 = sext i32 %46 to i64
  %49 = load ptr, ptr %47, align 8
  %50 = getelementptr inbounds i32, ptr %49, i64 %48
  %51 = load i32, ptr %50, align 4
  %52 = getelementptr inbounds nuw i8, ptr %0, i64 104
  %53 = load ptr, ptr %52, align 8
  %54 = getelementptr inbounds i32, ptr %53, i64 %48
  %55 = load i32, ptr %54, align 4
  %56 = add nsw i32 %55, %51
  %.not14.i = icmp slt i32 %55, 1
  br i1 %.not14.i, label %_ZNK10open_spiel9blackjack14BlackjackState18GetBestPlayerTotalEi.exit, label %.lr.ph.i

.lr.ph.i:                                         ; preds = %41, %.lr.ph.i
  %.016.i = phi i32 [ %62, %.lr.ph.i ], [ 1, %41 ]
  %.01315.i = phi i32 [ %.1.i, %.lr.ph.i ], [ %56, %41 ]
  %57 = mul nuw nsw i32 %.016.i, 11
  %58 = add nsw i32 %57, %51
  %59 = sub nsw i32 %55, %.016.i
  %60 = add nsw i32 %58, %59
  %61 = icmp slt i32 %60, 22
  %.sroa.speculated.i = tail call i32 @llvm.smax.i32(i32 %.01315.i, i32 %60)
  %.1.i = select i1 %61, i32 %.sroa.speculated.i, i32 %.01315.i
  %62 = add nuw i32 %.016.i, 1
  %exitcond.not.i = icmp eq i32 %.016.i, %55
  br i1 %exitcond.not.i, label %_ZNK10open_spiel9blackjack14BlackjackState18GetBestPlayerTotalEi.exit, label %.lr.ph.i, !llvm.loop !7

_ZNK10open_spiel9blackjack14BlackjackState18GetBestPlayerTotalEi.exit: ; preds = %.lr.ph.i, %41
  %.013.lcssa.i = phi i32 [ %56, %41 ], [ %.1.i, %.lr.ph.i ]
  %63 = icmp slt i32 %.013.lcssa.i, 17
  br i1 %63, label %.sink.split, label %64

64:                                               ; preds = %_ZNK10open_spiel9blackjack14BlackjackState18GetBestPlayerTotalEi.exit
  %65 = load i32, ptr %33, align 8
  %66 = getelementptr inbounds nuw i8, ptr %0, i64 128
  %67 = sext i32 %65 to i64
  %68 = load ptr, ptr %66, align 8
  %69 = getelementptr inbounds i32, ptr %68, i64 %67
  store i32 1, ptr %69, align 4
  %70 = load ptr, ptr %0, align 8
  %71 = getelementptr inbounds i8, ptr %70, i64 88
  %72 = load ptr, ptr %71, align 8
  %73 = tail call noundef zeroext i1 %72(ptr noundef nonnull align 8 dereferenceable(200) %0)
  br i1 %73, label %_ZN10open_spiel9blackjack14BlackjackState13EndPlayerTurnEi.exit3, label %74

74:                                               ; preds = %64
  %75 = load ptr, ptr %66, align 8
  %76 = load i32, ptr %75, align 4
  %.not.i.i1 = icmp eq i32 %76, 0
  br i1 %.not.i.i1, label %_ZN10open_spiel9blackjack14BlackjackState13EndPlayerTurnEi.exit3, label %77

77:                                               ; preds = %74
  %78 = load ptr, ptr %34, align 8
  %79 = load ptr, ptr %78, align 8
  %80 = getelementptr inbounds i8, ptr %79, i64 56
  %81 = load ptr, ptr %80, align 8
  %82 = tail call noundef i32 %81(ptr noundef nonnull align 8 dereferenceable(280) %78)
  br label %_ZN10open_spiel9blackjack14BlackjackState13EndPlayerTurnEi.exit3

_ZN10open_spiel9blackjack14BlackjackState13EndPlayerTurnEi.exit3: ; preds = %64, %74, %77
  %.0.i.i2 = phi i32 [ -4, %64 ], [ %82, %77 ], [ 0, %74 ]
  %83 = getelementptr inbounds nuw i8, ptr %0, i64 68
  store i32 %.0.i.i2, ptr %83, align 4
  br label %.sink.split

.sink.split:                                      ; preds = %_ZNK10open_spiel9blackjack14BlackjackState18GetBestPlayerTotalEi.exit, %_ZN10open_spiel9blackjack14BlackjackState13EndPlayerTurnEi.exit3
  %.sink = phi i32 [ %.0.i.i2, %_ZN10open_spiel9blackjack14BlackjackState13EndPlayerTurnEi.exit3 ], [ -1, %_ZNK10open_spiel9blackjack14BlackjackState18GetBestPlayerTotalEi.exit ]
  store i32 %.sink, ptr %33, align 8
  br label %84

84:                                               ; preds = %.sink.split, %31
  ret void
}